target datalayout = "e-m:e-p270:32:32-p271:32:32-p272:64:64-i64:64-i128:128-f80:128-n8:16:32:64-S128"
target triple = "x86_64-pc-linux-gnu"

%struct.strvec = type { ptr, i64, i64 }
%struct.credential_capability = type { i8, [3 x i8] }
%struct.credential = type { %struct.string_list, %struct.strvec, %struct.strvec, %struct.strvec, i16, [2 x i8], %struct.credential_capability, %struct.credential_capability, ptr, ptr, ptr, ptr, ptr, ptr, ptr, i64, ptr }
%struct.string_list = type { ptr, i64, i64, i8, ptr }

@http_proactive_auth = internal global i32 0, align 4
@http_auth_methods = internal global i64 -17, align 8
@the_repository = external global ptr, align 8
@curl_empty_auth = internal global i32 -1, align 4
@http_auth_methods_restricted = internal global i32 0, align 4
@empty_auth_useless = internal global i64 19, align 8
@.str.180 = private unnamed_addr constant [2 x i8] c":\00", align 1
@.str.181 = private unnamed_addr constant [6 x i8] c"Basic\00", align 1

; Function Attrs: nounwind uwtable
define internal i32 @always_auth_proactively() #0 {
  %1 = load i32, ptr @http_proactive_auth, align 4, !tbaa !19
  %2 = icmp ne i32 %1, 0
  br i1 %2, label %3, label %6

3:                                                ; preds = %0
  %4 = load i32, ptr @http_proactive_auth, align 4, !tbaa !19
  %5 = icmp ne i32 %4, 1
  br label %6

6:                                                ; preds = %3, %0
  %7 = phi i1 [ false, %0 ], [ %5, %3 ]
  %8 = zext i1 %7 to i32
  ret i32 %8
}

; Function Attrs: nounwind uwtable
define internal i32 @curl_empty_auth_enabled() #0 {
  %1 = alloca i32, align 4
  %2 = load i32, ptr @curl_empty_auth, align 4, !tbaa !19
  %3 = icmp sge i32 %2, 0
  br i1 %3, label %4, label %6

4:                                                ; preds = %0
  %5 = load i32, ptr @curl_empty_auth, align 4, !tbaa !19
  store i32 %5, ptr %1, align 4
  br label %17

6:                                                ; preds = %0
  %7 = load i32, ptr @http_auth_methods_restricted, align 4, !tbaa !19
  %8 = icmp ne i32 %7, 0
  br i1 %8, label %9, label %16

9:                                                ; preds = %6
  %10 = load i64, ptr @http_auth_methods, align 8, !tbaa !9
  %11 = load i64, ptr @empty_auth_useless, align 8, !tbaa !9
  %12 = xor i64 %11, -1
  %13 = and i64 %10, %12
  %14 = icmp ne i64 %13, 0
  br i1 %14, label %15, label %16

15:                                               ; preds = %9
  store i32 1, ptr %1, align 4
  br label %17

16:                                               ; preds = %9, %6
  store i32 0, ptr %1, align 4
  br label %17

17:                                               ; preds = %16, %15, %4
  %18 = load i32, ptr %1, align 4
  ret i32 %18
}

; Function Attrs: nounwind uwtable
define internal void @init_curl_http_auth(ptr noundef %0) #0 {
  %2 = alloca ptr, align 8
  %3 = alloca i32, align 4
  %4 = alloca i32, align 4
  store ptr %0, ptr %2, align 8, !tbaa !11
  %5 = load ptr, ptr getelementptr inbounds nuw (%struct.credential, ptr @http_auth, i32 0, i32 8), align 8, !tbaa !114
  %6 = icmp ne ptr %5, null
  br i1 %6, label %7, label %11

7:                                                ; preds = %1
  %8 = load ptr, ptr getelementptr inbounds nuw (%struct.credential, ptr @http_auth, i32 0, i32 8), align 8, !tbaa !114
  %9 = load i8, ptr %8, align 1, !tbaa !65
  %10 = icmp ne i8 %9, 0
  br i1 %10, label %46, label %11

11:                                               ; preds = %7, %1
  %12 = load ptr, ptr getelementptr inbounds nuw (%struct.credential, ptr @http_auth, i32 0, i32 10), align 8, !tbaa !34
  %13 = icmp ne ptr %12, null
  br i1 %13, label %14, label %18

14:                                               ; preds = %11
  %15 = load ptr, ptr getelementptr inbounds nuw (%struct.credential, ptr @http_auth, i32 0, i32 10), align 8, !tbaa !34
  %16 = load i8, ptr %15, align 1, !tbaa !65
  %17 = icmp ne i8 %16, 0
  br i1 %17, label %46, label %18

18:                                               ; preds = %14, %11
  call void @llvm.lifetime.start.p0(i64 4, ptr %3) #11
  %19 = call i32 @curl_empty_auth_enabled()
  store i32 %19, ptr %3, align 4, !tbaa !19
  %20 = load i32, ptr %3, align 4, !tbaa !19
  %21 = icmp ne i32 %20, -1
  br i1 %21, label %22, label %25

22:                                               ; preds = %18
  %23 = call i32 @always_auth_proactively()
  %24 = icmp ne i32 %23, 0
  br i1 %24, label %25, label %28

25:                                               ; preds = %22, %18
  %26 = load i32, ptr %3, align 4, !tbaa !19
  %27 = icmp eq i32 %26, 1
  br i1 %27, label %28, label %31

28:                                               ; preds = %25, %22
  %29 = load ptr, ptr %2, align 8, !tbaa !11
  %30 = call i32 (ptr, i32, ...) @curl_easy_setopt(ptr noundef %29, i32 noundef 10005, ptr noundef @.str.180)
  store i32 1, ptr %4, align 4
  br label %43

31:                                               ; preds = %25
  %32 = call i32 @always_auth_proactively()
  %33 = icmp ne i32 %32, 0
  br i1 %33, label %35, label %34

34:                                               ; preds = %31
  store i32 1, ptr %4, align 4
  br label %43

35:                                               ; preds = %31
  %36 = load i32, ptr @http_proactive_auth, align 4, !tbaa !19
  %37 = icmp eq i32 %36, 3
  br i1 %37, label %38, label %40

38:                                               ; preds = %35
  %39 = call ptr @strvec_push(ptr noundef getelementptr inbounds nuw (%struct.credential, ptr @http_auth, i32 0, i32 1), ptr noundef @.str.181)
  br label %40

40:                                               ; preds = %38, %35
  br label %41

41:                                               ; preds = %40
  br label %42

42:                                               ; preds = %41
  store i32 0, ptr %4, align 4
  br label %43

43:                                               ; preds = %42, %34, %28
  call void @llvm.lifetime.end.p0(i64 4, ptr %3) #11
  %44 = load i32, ptr %4, align 4
  switch i32 %44, label %64 [
    i32 0, label %45
    i32 1, label %63
  ]

45:                                               ; preds = %43
  br label %46

46:                                               ; preds = %45, %14, %7
  %47 = load ptr, ptr @the_repository, align 8, !tbaa !66
  call void @credential_fill(ptr noundef %47, ptr noundef @http_auth, i32 noundef 1)
  %48 = load ptr, ptr getelementptr inbounds nuw (%struct.credential, ptr @http_auth, i32 0, i32 9), align 8, !tbaa !80
  %49 = icmp ne ptr %48, null
  br i1 %49, label %50, label %63

50:                                               ; preds = %46
  %51 = call i32 @always_auth_proactively()
  %52 = icmp ne i32 %51, 0
  br i1 %52, label %53, label %56

53:                                               ; preds = %50
  %54 = load ptr, ptr %2, align 8, !tbaa !11
  %55 = call i32 (ptr, i32, ...) @curl_easy_setopt(ptr noundef %54, i32 noundef 107, i64 noundef 1)
  br label %56

56:                                               ; preds = %53, %50
  %57 = load ptr, ptr %2, align 8, !tbaa !11
  %58 = load ptr, ptr getelementptr inbounds nuw (%struct.credential, ptr @http_auth, i32 0, i32 8), align 8, !tbaa !114
  %59 = call i32 (ptr, i32, ...) @curl_easy_setopt(ptr noundef %57, i32 noundef 10173, ptr noundef %58)
  %60 = load ptr, ptr %2, align 8, !tbaa !11
  %61 = load ptr, ptr getelementptr inbounds nuw (%struct.credential, ptr @http_auth, i32 0, i32 9), align 8, !tbaa !80
  %62 = call i32 (ptr, i32, ...) @curl_easy_setopt(ptr noundef %60, i32 noundef 10174, ptr noundef %61)
  br label %63

63:                                               ; preds = %43, %56, %46
  ret void

64:                                               ; preds = %43
  unreachable
}