; Function Attrs: nounwind uwtable
define internal fastcc void @init_curl_http_auth(ptr noundef %0) unnamed_addr #3 {
  %2 = load ptr, ptr getelementptr inbounds nuw (i8, ptr @http_auth, i64 128), align 8, !tbaa !73
  %.not = icmp eq ptr %2, null
  br i1 %.not, label %5, label %3

3:                                                ; preds = %1
  %4 = load i8, ptr %2, align 1, !tbaa !24
  %.not11 = icmp eq i8 %4, 0
  br i1 %.not11, label %5, label %.thread

5:                                                ; preds = %3, %1
  %6 = load ptr, ptr getelementptr inbounds nuw (i8, ptr @http_auth, i64 144), align 8, !tbaa !22
  %.not12 = icmp eq ptr %6, null
  br i1 %.not12, label %9, label %7

7:                                                ; preds = %5
  %8 = load i8, ptr %6, align 1, !tbaa !24
  %.not13 = icmp eq i8 %8, 0
  br i1 %.not13, label %9, label %.thread

9:                                                ; preds = %7, %5
  %10 = load i32, ptr @curl_empty_auth, align 4, !tbaa !38
  %11 = icmp sgt i32 %10, -1
  br i1 %11, label %curl_empty_auth_enabled.exit, label %12

12:                                               ; preds = %9
  %.b.i = load i1, ptr @http_auth_methods_restricted, align 4
  br i1 %.b.i, label %13, label %curl_empty_auth_enabled.exit

13:                                               ; preds = %12
  %14 = load i64, ptr @http_auth_methods, align 8, !tbaa !63
  %15 = and i64 %14, -20
  %.not.i = icmp eq i64 %15, 0
  br i1 %.not.i, label %curl_empty_auth_enabled.exit, label %curl_empty_auth_enabled.exit.thread

curl_empty_auth_enabled.exit:                     ; preds = %12, %13, %9
  %.0.i = phi i32 [ %10, %9 ], [ 0, %13 ], [ 0, %12 ]
  %16 = load i32, ptr @http_proactive_auth, align 4, !tbaa !38
  %17 = icmp ult i32 %16, 2
  %18 = icmp eq i32 %.0.i, 1
  %or.cond = or i1 %18, %17
  br i1 %or.cond, label %curl_empty_auth_enabled.exit.thread, label %19

19:                                               ; preds = %curl_empty_auth_enabled.exit
  %20 = icmp eq i32 %16, 3
  br i1 %20, label %21, label %.thread

21:                                               ; preds = %19
  %22 = tail call ptr @strvec_push(ptr noundef nonnull getelementptr inbounds nuw (i8, ptr @http_auth, i64 40), ptr noundef nonnull @.str.181) #22
  br label %.thread

curl_empty_auth_enabled.exit.thread:              ; preds = %13, %curl_empty_auth_enabled.exit
  %23 = tail call i32 (ptr, i32, ...) @curl_easy_setopt(ptr noundef %0, i32 noundef 10005, ptr noundef nonnull @.str.180) #22
  br label %36

.thread:                                          ; preds = %19, %21, %7, %3
  %24 = load ptr, ptr @the_repository, align 8, !tbaa !39
  tail call void @credential_fill(ptr noundef %24, ptr noundef nonnull @http_auth, i32 noundef 1) #22
  %25 = load ptr, ptr getelementptr inbounds nuw (i8, ptr @http_auth, i64 136), align 8, !tbaa !70
  %.not15 = icmp eq ptr %25, null
  br i1 %.not15, label %36, label %26

26:                                               ; preds = %.thread
  %27 = load i32, ptr @http_proactive_auth, align 4, !tbaa !38
  %28 = icmp ult i32 %27, 2
  br i1 %28, label %31, label %29

29:                                               ; preds = %26
  %30 = tail call i32 (ptr, i32, ...) @curl_easy_setopt(ptr noundef %0, i32 noundef 107, i64 noundef 1) #22
  br label %31

31:                                               ; preds = %29, %26
  %32 = load ptr, ptr getelementptr inbounds nuw (i8, ptr @http_auth, i64 128), align 8, !tbaa !73
  %33 = tail call i32 (ptr, i32, ...) @curl_easy_setopt(ptr noundef %0, i32 noundef 10173, ptr noundef %32) #22
  %34 = load ptr, ptr getelementptr inbounds nuw (i8, ptr @http_auth, i64 136), align 8, !tbaa !70
  %35 = tail call i32 (ptr, i32, ...) @curl_easy_setopt(ptr noundef %0, i32 noundef 10174, ptr noundef %34) #22
  br label %36

36:                                               ; preds = %curl_empty_auth_enabled.exit.thread, %31, %.thread
  ret void
}